target datalayout = "e-m:e-p270:32:32-p271:32:32-p272:64:64-i64:64-i128:128-f80:128-n8:16:32:64-S128"
target triple = "x86_64-pc-linux-gnu"

@.str.3 = private unnamed_addr constant [2 x i8] c"\0A\00", align 1
@.str.4 = private unnamed_addr constant [31 x i8] c"    qwp [options] [selection]\0A\00", align 1
@.str.5 = private unnamed_addr constant [78 x i8] c"This command runs quadratic wirelength placement on the selected modules and\0A\00", align 1
@.str.6 = private unnamed_addr constant [67 x i8] c"annotates the cells in the design with 'qwp_position' attributes.\0A\00", align 1
@.str.7 = private unnamed_addr constant [10 x i8] c"    -ltr\0A\00", align 1
@.str.8 = private unnamed_addr constant [80 x i8] c"        Add left-to-right constraints: constrain all inputs on the left border\0A\00", align 1
@.str.9 = private unnamed_addr constant [38 x i8] c"        outputs to the right border.\0A\00", align 1
@.str.10 = private unnamed_addr constant [12 x i8] c"    -alpha\0A\00", align 1
@.str.11 = private unnamed_addr constant [75 x i8] c"        Add constraints for inputs/outputs to be placed in alphanumerical\0A\00", align 1
@.str.12 = private unnamed_addr constant [49 x i8] c"        order along the y-axis (top-to-bottom).\0A\00", align 1
@.str.13 = private unnamed_addr constant [13 x i8] c"    -grid N\0A\00", align 1
@.str.14 = private unnamed_addr constant [70 x i8] c"        Number of grid divisions in x- and y-direction. (default=16)\0A\00", align 1
@.str.15 = private unnamed_addr constant [28 x i8] c"    -dump <html_file_name>\0A\00", align 1
@.str.16 = private unnamed_addr constant [70 x i8] c"        Dump a protocol of the placement algorithm to the html file.\0A\00", align 1
@.str.17 = private unnamed_addr constant [8 x i8] c"    -v\0A\00", align 1
@.str.18 = private unnamed_addr constant [58 x i8] c"        Verbose solver output for profiling or debugging\0A\00", align 1
@.str.19 = private unnamed_addr constant [71 x i8] c"Note: This implementation of a quadratic wirelength placer uses exact\0A\00", align 1
@.str.20 = private unnamed_addr constant [70 x i8] c"dense matrix operations. It is only a toy-placer for small circuits.\0A\00", align 1

; Function Attrs: mustprogress uwtable
define internal void @_ZN12_GLOBAL__N_17QwpPass4helpEv(ptr noundef nonnull align 8 dereferenceable(104) %0) unnamed_addr #4 align 2 {
  %2 = alloca ptr, align 8
  store ptr %0, ptr %2, align 8
  call void (ptr, ...) @_ZN5Yosys3logEPKcz(ptr noundef @.str.3)
  call void (ptr, ...) @_ZN5Yosys3logEPKcz(ptr noundef @.str.4)
  call void (ptr, ...) @_ZN5Yosys3logEPKcz(ptr noundef @.str.3)
  call void (ptr, ...) @_ZN5Yosys3logEPKcz(ptr noundef @.str.5)
  call void (ptr, ...) @_ZN5Yosys3logEPKcz(ptr noundef @.str.6)
  call void (ptr, ...) @_ZN5Yosys3logEPKcz(ptr noundef @.str.3)
  call void (ptr, ...) @_ZN5Yosys3logEPKcz(ptr noundef @.str.7)
  call void (ptr, ...) @_ZN5Yosys3logEPKcz(ptr noundef @.str.8)
  call void (ptr, ...) @_ZN5Yosys3logEPKcz(ptr noundef @.str.9)
  call void (ptr, ...) @_ZN5Yosys3logEPKcz(ptr noundef @.str.3)
  call void (ptr, ...) @_ZN5Yosys3logEPKcz(ptr noundef @.str.10)
  call void (ptr, ...) @_ZN5Yosys3logEPKcz(ptr noundef @.str.11)
  call void (ptr, ...) @_ZN5Yosys3logEPKcz(ptr noundef @.str.12)
  call void (ptr, ...) @_ZN5Yosys3logEPKcz(ptr noundef @.str.3)
  call void (ptr, ...) @_ZN5Yosys3logEPKcz(ptr noundef @.str.13)
  call void (ptr, ...) @_ZN5Yosys3logEPKcz(ptr noundef @.str.14)
  call void (ptr, ...) @_ZN5Yosys3logEPKcz(ptr noundef @.str.3)
  call void (ptr, ...) @_ZN5Yosys3logEPKcz(ptr noundef @.str.15)
  call void (ptr, ...) @_ZN5Yosys3logEPKcz(ptr noundef @.str.16)
  call void (ptr, ...) @_ZN5Yosys3logEPKcz(ptr noundef @.str.3)
  call void (ptr, ...) @_ZN5Yosys3logEPKcz(ptr noundef @.str.17)
  call void (ptr, ...) @_ZN5Yosys3logEPKcz(ptr noundef @.str.18)
  call void (ptr, ...) @_ZN5Yosys3logEPKcz(ptr noundef @.str.3)
  call void (ptr, ...) @_ZN5Yosys3logEPKcz(ptr noundef @.str.19)
  call void (ptr, ...) @_ZN5Yosys3logEPKcz(ptr noundef @.str.20)
  call void (ptr, ...) @_ZN5Yosys3logEPKcz(ptr noundef @.str.3)
  ret void
}