; Function Attrs: mustprogress uwtable
define internal void @_ZN12_GLOBAL__N_17QwpPass4helpEv(ptr nocapture nonnull readnone align 8 %0) unnamed_addr #4 align 2 {
  tail call void (ptr, ...) @_ZN5Yosys3logEPKcz(ptr noundef nonnull @.str.3)
  tail call void (ptr, ...) @_ZN5Yosys3logEPKcz(ptr noundef nonnull @.str.4)
  tail call void (ptr, ...) @_ZN5Yosys3logEPKcz(ptr noundef nonnull @.str.3)
  tail call void (ptr, ...) @_ZN5Yosys3logEPKcz(ptr noundef nonnull @.str.5)
  tail call void (ptr, ...) @_ZN5Yosys3logEPKcz(ptr noundef nonnull @.str.6)
  tail call void (ptr, ...) @_ZN5Yosys3logEPKcz(ptr noundef nonnull @.str.3)
  tail call void (ptr, ...) @_ZN5Yosys3logEPKcz(ptr noundef nonnull @.str.7)
  tail call void (ptr, ...) @_ZN5Yosys3logEPKcz(ptr noundef nonnull @.str.8)
  tail call void (ptr, ...) @_ZN5Yosys3logEPKcz(ptr noundef nonnull @.str.9)
  tail call void (ptr, ...) @_ZN5Yosys3logEPKcz(ptr noundef nonnull @.str.3)
  tail call void (ptr, ...) @_ZN5Yosys3logEPKcz(ptr noundef nonnull @.str.10)
  tail call void (ptr, ...) @_ZN5Yosys3logEPKcz(ptr noundef nonnull @.str.11)
  tail call void (ptr, ...) @_ZN5Yosys3logEPKcz(ptr noundef nonnull @.str.12)
  tail call void (ptr, ...) @_ZN5Yosys3logEPKcz(ptr noundef nonnull @.str.3)
  tail call void (ptr, ...) @_ZN5Yosys3logEPKcz(ptr noundef nonnull @.str.13)
  tail call void (ptr, ...) @_ZN5Yosys3logEPKcz(ptr noundef nonnull @.str.14)
  tail call void (ptr, ...) @_ZN5Yosys3logEPKcz(ptr noundef nonnull @.str.3)
  tail call void (ptr, ...) @_ZN5Yosys3logEPKcz(ptr noundef nonnull @.str.15)
  tail call void (ptr, ...) @_ZN5Yosys3logEPKcz(ptr noundef nonnull @.str.16)
  tail call void (ptr, ...) @_ZN5Yosys3logEPKcz(ptr noundef nonnull @.str.3)
  tail call void (ptr, ...) @_ZN5Yosys3logEPKcz(ptr noundef nonnull @.str.17)
  tail call void (ptr, ...) @_ZN5Yosys3logEPKcz(ptr noundef nonnull @.str.18)
  tail call void (ptr, ...) @_ZN5Yosys3logEPKcz(ptr noundef nonnull @.str.3)
  tail call void (ptr, ...) @_ZN5Yosys3logEPKcz(ptr noundef nonnull @.str.19)
  tail call void (ptr, ...) @_ZN5Yosys3logEPKcz(ptr noundef nonnull @.str.20)
  tail call void (ptr, ...) @_ZN5Yosys3logEPKcz(ptr noundef nonnull @.str.3)
  ret void
}